target datalayout = "e-m:e-p270:32:32-p271:32:32-p272:64:64-i64:64-i128:128-f80:128-n8:16:32:64-S128"
target triple = "x86_64-pc-linux-gnu"

%class.RtpAudioStream = type { %class.QObject, %struct._rtpstream_id, %struct._rtpstream_info, i8, %class.QList, ptr, ptr, ptr, double, double, double, double, i64, %class.AudioRouting, i8, i32, i32, i32, %class.QSet, ptr, %class.QMap, %class.QList.0, %class.QList.4, %class.QList.4, %class.QList.4, %class.QList.4, i16, i16, i32, i32, i32, double, ptr }
%class.QObject = type { ptr, %class.QScopedPointer }
%class.QScopedPointer = type { ptr }
%struct._rtpstream_id = type { %struct._address, i16, %struct._address, i16, i32 }
%struct._address = type { i32, i32, ptr, ptr }
%struct._rtpstream_info = type { %struct._rtpstream_id, i8, ptr, [256 x ptr], ptr, i32, i32, i32, i32, i32, i32, ptr, ptr, %struct.nstime_t, %struct.nstime_t, %struct.nstime_t, i16, i32, i32, %struct._tap_rtp_stat_t, i32, ptr }
%struct.nstime_t = type { i64, i32 }
%struct._tap_rtp_stat_t = type { i32, i32, i16, i64, i64, double, [300 x %struct._bw_history_item], i16, i16, i32, i32, double, double, double, double, double, double, double, double, double, double, double, double, double, double, double, double, double, double, double, i32, i16, i16, i32, i32, i32, i32, i16, i32, i32, i32 }
%struct._bw_history_item = type { double, i32 }
%class.QList = type { %struct.QArrayDataPointer }
%struct.QArrayDataPointer = type { ptr, ptr, i64 }
%class.AudioRouting = type { i8, i32 }
%class.QSet = type { %class.QHash }
%class.QHash = type { ptr }
%class.QMap = type { %"class.QtPrivate::QExplicitlySharedDataPointerV2" }
%"class.QtPrivate::QExplicitlySharedDataPointerV2" = type { ptr }
%class.QList.0 = type { %struct.QArrayDataPointer.3 }
%struct.QArrayDataPointer.3 = type { ptr, ptr, i64 }
%class.QList.4 = type { %struct.QArrayDataPointer.7 }
%struct.QArrayDataPointer.7 = type { ptr, ptr, i64 }
%class.QList.9 = type { %struct.QArrayDataPointer.12 }
%struct.QArrayDataPointer.12 = type { ptr, ptr, i64 }

; Function Attrs: mustprogress nounwind uwtable
define linkonce_odr noundef ptr @_ZN23QListSpecialMethodsBaseI7QStringE4selfEv(ptr noundef nonnull align 1 dereferenceable(1) %0) #2 comdat align 2 {
  %2 = alloca ptr, align 8
  store ptr %0, ptr %2, align 8
  %3 = load ptr, ptr %2, align 8
  ret ptr %3
}

; Function Attrs: mustprogress uwtable
define linkonce_odr void @_ZN19QListSpecialMethodsI7QStringE4sortEN2Qt15CaseSensitivityE(ptr noundef nonnull align 1 dereferenceable(1) %0, i32 noundef %1) #0 comdat align 2 {
  %3 = alloca ptr, align 8
  %4 = alloca i32, align 4
  store ptr %0, ptr %3, align 8
  store i32 %1, ptr %4, align 4
  %5 = load ptr, ptr %3, align 8
  %6 = call noundef ptr @_ZN23QListSpecialMethodsBaseI7QStringE4selfEv(ptr noundef nonnull align 1 dereferenceable(1) %5)
  %7 = load i32, ptr %4, align 4
  call void @_ZN9QtPrivate16QStringList_sortEP5QListI7QStringEN2Qt15CaseSensitivityE(ptr noundef %6, i32 noundef %7)
  ret void
}

; Function Attrs: mustprogress uwtable
define void @_ZNK14RtpAudioStream12payloadNamesEv(ptr dead_on_unwind noalias writable sret(%class.QList.9) align 8 %0, ptr noundef nonnull align 8 dereferenceable(7680) %1) #0 align 2 personality ptr @__gxx_personality_v0 {
  %3 = alloca ptr, align 8
  %4 = alloca ptr, align 8
  %5 = alloca i1, align 1
  %6 = alloca ptr, align 8
  %7 = alloca i32, align 4
  store ptr %0, ptr %3, align 8
  store ptr %1, ptr %4, align 8
  %8 = load ptr, ptr %4, align 8
  store i1 false, ptr %5, align 1
  %9 = getelementptr inbounds %class.RtpAudioStream, ptr %8, i32 0, i32 18
  call void @_ZNK4QSetI7QStringE6valuesEv(ptr dead_on_unwind writable sret(%class.QList.9) align 8 %0, ptr noundef nonnull align 8 dereferenceable(8) %9)
  invoke void @_ZN19QListSpecialMethodsI7QStringE4sortEN2Qt15CaseSensitivityE(ptr noundef nonnull align 1 dereferenceable(1) %0, i32 noundef 1)
          to label %10 unwind label %12

10:                                               ; preds = %2
  store i1 true, ptr %5, align 1
  %11 = load i1, ptr %5, align 1
  br i1 %11, label %17, label %16

12:                                               ; preds = %2
  %13 = landingpad { ptr, i32 }
          cleanup
  %14 = extractvalue { ptr, i32 } %13, 0
  store ptr %14, ptr %6, align 8
  %15 = extractvalue { ptr, i32 } %13, 1
  store i32 %15, ptr %7, align 4
  call void @_ZN5QListI7QStringED2Ev(ptr noundef nonnull align 8 dereferenceable(24) %0) #20
  br label %18

16:                                               ; preds = %10
  call void @_ZN5QListI7QStringED2Ev(ptr noundef nonnull align 8 dereferenceable(24) %0) #20
  br label %17

17:                                               ; preds = %16, %10
  ret void

18:                                               ; preds = %12
  %19 = load ptr, ptr %6, align 8
  %20 = load i32, ptr %7, align 4
  %21 = insertvalue { ptr, i32 } poison, ptr %19, 0
  %22 = insertvalue { ptr, i32 } %21, i32 %20, 1
  resume { ptr, i32 } %22
}