; Function Attrs: mustprogress uwtable
define void @_ZNK14RtpAudioStream12payloadNamesEv(ptr dead_on_unwind noalias writable sret(%class.QList.9) align 8 %0, ptr noundef nonnull align 8 dereferenceable(7680) %1) local_unnamed_addr #0 align 2 personality ptr @__gxx_personality_v0 {
  %3 = getelementptr inbounds i8, ptr %1, i64 7504
  tail call void @_ZNK4QSetI7QStringE6valuesEv(ptr dead_on_unwind writable sret(%class.QList.9) align 8 %0, ptr noundef nonnull align 8 dereferenceable(8) %3)
  invoke void @_ZN9QtPrivate16QStringList_sortEP5QListI7QStringEN2Qt15CaseSensitivityE(ptr noundef nonnull %0, i32 noundef 1)
          to label %_ZN19QListSpecialMethodsI7QStringE4sortEN2Qt15CaseSensitivityE.exit unwind label %4

4:                                                ; preds = %2
  %5 = landingpad { ptr, i32 }
          cleanup
  tail call void @_ZN5QListI7QStringED2Ev(ptr noundef nonnull align 8 dereferenceable(24) %0) #25
  resume { ptr, i32 } %5

_ZN19QListSpecialMethodsI7QStringE4sortEN2Qt15CaseSensitivityE.exit: ; preds = %2
  ret void
}